target datalayout = "e-m:e-p270:32:32-p271:32:32-p272:64:64-i64:64-i128:128-f80:128-n8:16:32:64-S128"
target triple = "x86_64-unknown-linux-gnu"

%"class.hermes::(anonymous namespace)::GenJS" = type { ptr, i8, i32 }
%"class.std::variant" = type { %"struct.std::__detail::__variant::_Variant_base.base", [7 x i8] }
%"struct.std::__detail::__variant::_Variant_base.base" = type { %"struct.std::__detail::__variant::_Move_assign_base.base" }
%"struct.std::__detail::__variant::_Move_assign_base.base" = type { %"struct.std::__detail::__variant::_Copy_assign_base.base" }
%"struct.std::__detail::__variant::_Copy_assign_base.base" = type { %"struct.std::__detail::__variant::_Move_ctor_base.base" }
%"struct.std::__detail::__variant::_Move_ctor_base.base" = type { %"struct.std::__detail::__variant::_Copy_ctor_base.base" }
%"struct.std::__detail::__variant::_Copy_ctor_base.base" = type { %"struct.std::__detail::__variant::_Variant_storage.base" }
%"struct.std::__detail::__variant::_Variant_storage.base" = type <{ %"union.std::__detail::__variant::_Variadic_union", i8 }>
%"union.std::__detail::__variant::_Variadic_union" = type { %"union.std::__detail::__variant::_Variadic_union.0" }
%"union.std::__detail::__variant::_Variadic_union.0" = type { %"union.std::__detail::__variant::_Variadic_union.2" }
%"union.std::__detail::__variant::_Variadic_union.2" = type { %"struct.std::__detail::__variant::_Uninitialized.3" }
%"struct.std::__detail::__variant::_Uninitialized.3" = type { ptr }
%"class.llvh::raw_ostream" = type <{ ptr, ptr, ptr, ptr, i32, [4 x i8] }>
%"class.hermes::ESTree::Node" = type { %"class.llvh::ilist_node", i32, i32, %"class.llvh::SMRange", %"class.llvh::SMLoc" }
%"class.llvh::ilist_node" = type { %"class.llvh::ilist_node_impl" }
%"class.llvh::ilist_node_impl" = type { %"class.llvh::ilist_node_base" }
%"class.llvh::ilist_node_base" = type { ptr, ptr }
%"class.llvh::SMRange" = type { %"class.llvh::SMLoc", %"class.llvh::SMLoc" }
%"class.llvh::SMLoc" = type { ptr }
%"class.llvh::StringRef" = type { ptr, i64 }
%"class.hermes::ESTree::VariableDeclaratorNode" = type { %"class.hermes::ESTree::Node", ptr, ptr }

@.str.308 = private unnamed_addr constant [4 x i8] c" = \00", align 1
@.str.309 = private unnamed_addr constant [2 x i8] c"=\00", align 1

; Function Attrs: mustprogress nounwind uwtable
define linkonce_odr hidden noundef nonnull align 8 dereferenceable(36) ptr @_ZN4llvh11raw_ostreamlsENS_9StringRefE(ptr noundef nonnull align 8 dereferenceable(36) %this, ptr %Str.coerce0, i64 %Str.coerce1) #0 comdat align 2 {
entry:
  %this.addr.i11 = alloca ptr, align 8
  %this.addr.i9 = alloca ptr, align 8
  %this.addr.i = alloca ptr, align 8
  %retval = alloca ptr, align 8
  %Str = alloca %"class.llvh::StringRef", align 8
  %this.addr = alloca ptr, align 8
  %Size = alloca i64, align 8
  %0 = getelementptr inbounds { ptr, i64 }, ptr %Str, i32 0, i32 0
  store ptr %Str.coerce0, ptr %0, align 8
  %1 = getelementptr inbounds { ptr, i64 }, ptr %Str, i32 0, i32 1
  store i64 %Str.coerce1, ptr %1, align 8
  store ptr %this, ptr %this.addr, align 8
  %this1 = load ptr, ptr %this.addr, align 8
  store ptr %Str, ptr %this.addr.i, align 8
  %this1.i = load ptr, ptr %this.addr.i, align 8
  %Length.i = getelementptr inbounds %"class.llvh::StringRef", ptr %this1.i, i32 0, i32 1
  %2 = load i64, ptr %Length.i, align 8
  store i64 %2, ptr %Size, align 8
  %3 = load i64, ptr %Size, align 8
  %OutBufEnd = getelementptr inbounds %"class.llvh::raw_ostream", ptr %this1, i32 0, i32 2
  %4 = load ptr, ptr %OutBufEnd, align 8
  %OutBufCur = getelementptr inbounds %"class.llvh::raw_ostream", ptr %this1, i32 0, i32 3
  %5 = load ptr, ptr %OutBufCur, align 8
  %sub.ptr.lhs.cast = ptrtoint ptr %4 to i64
  %sub.ptr.rhs.cast = ptrtoint ptr %5 to i64
  %sub.ptr.sub = sub i64 %sub.ptr.lhs.cast, %sub.ptr.rhs.cast
  %cmp = icmp ugt i64 %3, %sub.ptr.sub
  br i1 %cmp, label %if.then, label %if.end

if.then:                                          ; preds = %entry
  store ptr %Str, ptr %this.addr.i11, align 8
  %this1.i12 = load ptr, ptr %this.addr.i11, align 8
  %6 = load ptr, ptr %this1.i12, align 8
  %7 = load i64, ptr %Size, align 8
  %call3 = call noundef nonnull align 8 dereferenceable(36) ptr @_ZN4llvh11raw_ostream5writeEPKcm(ptr noundef nonnull align 8 dereferenceable(36) %this1, ptr noundef %6, i64 noundef %7)
  store ptr %call3, ptr %retval, align 8
  br label %return

if.end:                                           ; preds = %entry
  %8 = load i64, ptr %Size, align 8
  %tobool = icmp ne i64 %8, 0
  br i1 %tobool, label %if.then4, label %if.end8

if.then4:                                         ; preds = %if.end
  %OutBufCur5 = getelementptr inbounds %"class.llvh::raw_ostream", ptr %this1, i32 0, i32 3
  %9 = load ptr, ptr %OutBufCur5, align 8
  store ptr %Str, ptr %this.addr.i9, align 8
  %this1.i10 = load ptr, ptr %this.addr.i9, align 8
  %10 = load ptr, ptr %this1.i10, align 8
  %11 = load i64, ptr %Size, align 8
  call void @llvm.memcpy.p0.p0.i64(ptr align 1 %9, ptr align 1 %10, i64 %11, i1 false)
  %12 = load i64, ptr %Size, align 8
  %OutBufCur7 = getelementptr inbounds %"class.llvh::raw_ostream", ptr %this1, i32 0, i32 3
  %13 = load ptr, ptr %OutBufCur7, align 8
  %add.ptr = getelementptr inbounds i8, ptr %13, i64 %12
  store ptr %add.ptr, ptr %OutBufCur7, align 8
  br label %if.end8

if.end8:                                          ; preds = %if.then4, %if.end
  store ptr %this1, ptr %retval, align 8
  br label %return

return:                                           ; preds = %if.end8, %if.then
  %14 = load ptr, ptr %retval, align 8
  ret ptr %14
}

; Function Attrs: mustprogress nounwind uwtable
define linkonce_odr hidden noundef nonnull align 8 dereferenceable(36) ptr @_ZN4llvh11raw_ostreamlsEPKc(ptr noundef nonnull align 8 dereferenceable(36) %this, ptr noundef %Str) #0 comdat align 2 {
entry:
  %this.addr.i = alloca ptr, align 8
  %Str.addr.i = alloca ptr, align 8
  %this.addr = alloca ptr, align 8
  %Str.addr = alloca ptr, align 8
  %agg.tmp = alloca %"class.llvh::StringRef", align 8
  store ptr %this, ptr %this.addr, align 8
  store ptr %Str, ptr %Str.addr, align 8
  %this1 = load ptr, ptr %this.addr, align 8
  %0 = load ptr, ptr %Str.addr, align 8
  store ptr %agg.tmp, ptr %this.addr.i, align 8
  store ptr %0, ptr %Str.addr.i, align 8
  %this1.i = load ptr, ptr %this.addr.i, align 8
  %1 = load ptr, ptr %Str.addr.i, align 8
  store ptr %1, ptr %this1.i, align 8
  %Length.i = getelementptr inbounds %"class.llvh::StringRef", ptr %this1.i, i32 0, i32 1
  %2 = load ptr, ptr %Str.addr.i, align 8
  %tobool.i = icmp ne ptr %2, null
  br i1 %tobool.i, label %cond.true.i, label %cond.false.i

cond.true.i:                                      ; preds = %entry
  %3 = load ptr, ptr %Str.addr.i, align 8
  %call.i = call i64 @strlen(ptr noundef %3) #8
  br label %_ZN4llvh9StringRefC2EPKc.exit

cond.false.i:                                     ; preds = %entry
  br label %_ZN4llvh9StringRefC2EPKc.exit

_ZN4llvh9StringRefC2EPKc.exit:                    ; preds = %cond.false.i, %cond.true.i
  %cond.i = phi i64 [ %call.i, %cond.true.i ], [ 0, %cond.false.i ]
  store i64 %cond.i, ptr %Length.i, align 8
  %4 = getelementptr inbounds { ptr, i64 }, ptr %agg.tmp, i32 0, i32 0
  %5 = load ptr, ptr %4, align 8
  %6 = getelementptr inbounds { ptr, i64 }, ptr %agg.tmp, i32 0, i32 1
  %7 = load i64, ptr %6, align 8
  %call = call noundef nonnull align 8 dereferenceable(36) ptr @_ZN4llvh11raw_ostreamlsENS_9StringRefE(ptr noundef nonnull align 8 dereferenceable(36) %this1, ptr %5, i64 %7)
  ret ptr %call
}

; Function Attrs: mustprogress nounwind uwtable
define internal void @_ZN6hermes6ESTree15visitESTreeNodeINS_12_GLOBAL__N_15GenJSEEEvRT_PNS0_4NodeES7_(ptr noundef nonnull align 8 dereferenceable(16) %v, ptr noundef %node, ptr noundef %parent) #0 {
entry:
  %v.addr = alloca ptr, align 8
  %node.addr = alloca ptr, align 8
  %parent.addr = alloca ptr, align 8
  %coerce = alloca %"class.std::variant", align 8
  store ptr %v, ptr %v.addr, align 8
  store ptr %node, ptr %node.addr, align 8
  store ptr %parent, ptr %parent.addr, align 8
  %0 = load ptr, ptr %v.addr, align 8
  %1 = load ptr, ptr %node.addr, align 8
  %2 = load ptr, ptr %parent.addr, align 8
  %call = call { ptr, i8 } @_ZN6hermes6ESTree24RecursiveVisitorDispatchINS_12_GLOBAL__N_15GenJSELb1EE5visitERS3_PNS0_4NodeES7_(ptr noundef nonnull align 8 dereferenceable(16) %0, ptr noundef %1, ptr noundef %2)
  %3 = getelementptr inbounds { ptr, i8 }, ptr %coerce, i32 0, i32 0
  %4 = extractvalue { ptr, i8 } %call, 0
  store ptr %4, ptr %3, align 8
  %5 = getelementptr inbounds { ptr, i8 }, ptr %coerce, i32 0, i32 1
  %6 = extractvalue { ptr, i8 } %call, 1
  store i8 %6, ptr %5, align 8
  ret void
}

; Function Attrs: mustprogress nounwind uwtable
define internal void @_ZN6hermes12_GLOBAL__N_15GenJS5visitEPNS_6ESTree22VariableDeclaratorNodeE(ptr noundef nonnull align 8 dereferenceable(16) %this, ptr noundef %node) #0 align 2 {
entry:
  %this.addr = alloca ptr, align 8
  %node.addr = alloca ptr, align 8
  store ptr %this, ptr %this.addr, align 8
  store ptr %node, ptr %node.addr, align 8
  %this1 = load ptr, ptr %this.addr, align 8
  %0 = load ptr, ptr %node.addr, align 8
  %_id = getelementptr inbounds %"class.hermes::ESTree::VariableDeclaratorNode", ptr %0, i32 0, i32 2
  %1 = load ptr, ptr %_id, align 8
  %2 = load ptr, ptr %node.addr, align 8
  call void @_ZN6hermes6ESTree15visitESTreeNodeINS_12_GLOBAL__N_15GenJSEEEvRT_PNS0_4NodeES7_(ptr noundef nonnull align 8 dereferenceable(16) %this1, ptr noundef %1, ptr noundef %2)
  %3 = load ptr, ptr %node.addr, align 8
  %_init = getelementptr inbounds %"class.hermes::ESTree::VariableDeclaratorNode", ptr %3, i32 0, i32 1
  %4 = load ptr, ptr %_init, align 8
  %tobool = icmp ne ptr %4, null
  br i1 %tobool, label %if.then, label %if.end

if.then:                                          ; preds = %entry
  %OS_ = getelementptr inbounds %"class.hermes::(anonymous namespace)::GenJS", ptr %this1, i32 0, i32 0
  %5 = load ptr, ptr %OS_, align 8
  %pretty_ = getelementptr inbounds %"class.hermes::(anonymous namespace)::GenJS", ptr %this1, i32 0, i32 1
  %6 = load i8, ptr %pretty_, align 8
  %tobool2 = trunc i8 %6 to i1
  %cond = select i1 %tobool2, ptr @.str.308, ptr @.str.309
  %call = call noundef nonnull align 8 dereferenceable(36) ptr @_ZN4llvh11raw_ostreamlsEPKc(ptr noundef nonnull align 8 dereferenceable(36) %5, ptr noundef %cond)
  %7 = load ptr, ptr %node.addr, align 8
  %_init3 = getelementptr inbounds %"class.hermes::ESTree::VariableDeclaratorNode", ptr %7, i32 0, i32 1
  %8 = load ptr, ptr %_init3, align 8
  %9 = load ptr, ptr %node.addr, align 8
  call void @_ZN6hermes6ESTree15visitESTreeNodeINS_12_GLOBAL__N_15GenJSEEEvRT_PNS0_4NodeES7_(ptr noundef nonnull align 8 dereferenceable(16) %this1, ptr noundef %8, ptr noundef %9)
  br label %if.end

if.end:                                           ; preds = %if.then, %entry
  ret void
}