; Function Attrs: mustprogress nounwind uwtable
define internal fastcc void @_ZN6hermes12_GLOBAL__N_15GenJS5visitEPNS_6ESTree22VariableDeclaratorNodeE(ptr noundef nonnull align 8 captures(none) dereferenceable(16) %this, ptr noundef readonly captures(none) %node) unnamed_addr #0 align 2 {
entry:
  %_id = getelementptr inbounds nuw i8, ptr %node, i64 56
  %0 = load ptr, ptr %_id, align 8
  tail call fastcc void @_ZN6hermes6ESTree24RecursiveVisitorDispatchINS_12_GLOBAL__N_15GenJSELb1EE5visitERS3_PNS0_4NodeES7_(ptr noundef nonnull align 8 dereferenceable(16) %this, ptr noundef %0)
  %_init = getelementptr inbounds nuw i8, ptr %node, i64 48
  %1 = load ptr, ptr %_init, align 8
  %tobool.not = icmp eq ptr %1, null
  br i1 %tobool.not, label %if.end, label %if.then

if.then:                                          ; preds = %entry
  %2 = load ptr, ptr %this, align 8
  %pretty_ = getelementptr inbounds nuw i8, ptr %this, i64 8
  %3 = load i8, ptr %pretty_, align 8
  %tobool2 = trunc i8 %3 to i1
  %cond = select i1 %tobool2, ptr @.str.308, ptr @.str.309
  %call.i.i = select i1 %tobool2, i64 3, i64 1
  %OutBufEnd.i5.i = getelementptr inbounds nuw i8, ptr %2, i64 16
  %4 = load ptr, ptr %OutBufEnd.i5.i, align 8
  %OutBufCur.i6.i = getelementptr inbounds nuw i8, ptr %2, i64 24
  %5 = load ptr, ptr %OutBufCur.i6.i, align 8
  %sub.ptr.lhs.cast.i7.i = ptrtoint ptr %4 to i64
  %sub.ptr.rhs.cast.i8.i = ptrtoint ptr %5 to i64
  %sub.ptr.sub.i9.i = sub i64 %sub.ptr.lhs.cast.i7.i, %sub.ptr.rhs.cast.i8.i
  %cmp.i.i = icmp ugt i64 %call.i.i, %sub.ptr.sub.i9.i
  br i1 %cmp.i.i, label %if.then.i.i, label %if.then4.i.i

if.then.i.i:                                      ; preds = %if.then
  %call3.i.i = tail call noundef nonnull align 8 dereferenceable(36) ptr @_ZN4llvh11raw_ostream5writeEPKcm(ptr noundef nonnull align 8 dereferenceable(36) %2, ptr noundef nonnull %cond, i64 noundef %call.i.i) #12
  br label %_ZN4llvh11raw_ostreamlsEPKc.exit

if.then4.i.i:                                     ; preds = %if.then
  tail call void @llvm.memcpy.p0.p0.i64(ptr noundef nonnull align 1 dereferenceable(1) %5, ptr noundef nonnull align 1 dereferenceable(1) %cond, i64 %call.i.i, i1 false)
  %6 = load ptr, ptr %OutBufCur.i6.i, align 8
  %add.ptr.i.i = getelementptr inbounds nuw i8, ptr %6, i64 %call.i.i
  store ptr %add.ptr.i.i, ptr %OutBufCur.i6.i, align 8
  br label %_ZN4llvh11raw_ostreamlsEPKc.exit

_ZN4llvh11raw_ostreamlsEPKc.exit:                 ; preds = %if.then.i.i, %if.then4.i.i
  %7 = load ptr, ptr %_init, align 8
  tail call fastcc void @_ZN6hermes6ESTree24RecursiveVisitorDispatchINS_12_GLOBAL__N_15GenJSELb1EE5visitERS3_PNS0_4NodeES7_(ptr noundef nonnull align 8 dereferenceable(16) %this, ptr noundef %7)
  br label %if.end

if.end:                                           ; preds = %_ZN4llvh11raw_ostreamlsEPKc.exit, %entry
  ret void
}